target datalayout = "e-m:e-p270:32:32-p271:32:32-p272:64:64-i64:64-i128:128-f80:128-n8:16:32:64-S128"
target triple = "x86_64-pc-linux-gnu"

%struct.hm_header_st = type { i8, i32, i16, i32, i32, i32, i16 }
%struct.ssl_st = type { i32, i16, i16, ptr, ptr, ptr, ptr, ptr, i32, i32, ptr, ptr, i32, i32, ptr, ptr, ptr, ptr, ptr, ptr, ptr, ptr, i32, i32, [32 x i8], ptr, ptr, ptr, ptr, ptr, ptr, ptr, i64, %struct.crypto_ex_data_st, ptr, i32, i32, i32, i32, i16, ptr, i32, i64, ptr, ptr, ptr, ptr, ptr, ptr, i32, i32, ptr, ptr, i8, i8, i32 }
%struct.crypto_ex_data_st = type { ptr }
%struct.dtls1_state_st = type { i32, [256 x i8], i64, i16, i16, %struct.dtls1_bitmap_st, i16, i16, i16, [8 x i8], ptr, ptr, i32, %struct.hm_header_st, i32, %struct.timeval, i16 }
%struct.dtls1_bitmap_st = type { i64, i64 }
%struct.timeval = type { i64, i64 }

; Function Attrs: nounwind uwtable
define hidden void @dtls1_set_message_header(ptr noundef %0, i8 noundef zeroext %1, i64 noundef %2, i16 noundef zeroext %3, i64 noundef %4, i64 noundef %5) #0 {
  %7 = alloca ptr, align 8
  %8 = alloca i8, align 1
  %9 = alloca i64, align 8
  %10 = alloca i16, align 2
  %11 = alloca i64, align 8
  %12 = alloca i64, align 8
  %13 = alloca ptr, align 8
  store ptr %0, ptr %7, align 8, !tbaa !18
  store i8 %1, ptr %8, align 1, !tbaa !111
  store i64 %2, ptr %9, align 8, !tbaa !53
  store i16 %3, ptr %10, align 2, !tbaa !110
  store i64 %4, ptr %11, align 8, !tbaa !53
  store i64 %5, ptr %12, align 8, !tbaa !53
  call void @llvm.lifetime.start.p0(i64 8, ptr %13) #8
  %14 = load ptr, ptr %7, align 8, !tbaa !18
  %15 = getelementptr inbounds nuw %struct.ssl_st, ptr %14, i32 0, i32 15
  %16 = load ptr, ptr %15, align 8, !tbaa !21
  %17 = getelementptr inbounds nuw %struct.dtls1_state_st, ptr %16, i32 0, i32 13
  store ptr %17, ptr %13, align 8, !tbaa !115
  %18 = load i8, ptr %8, align 1, !tbaa !111
  %19 = load ptr, ptr %13, align 8, !tbaa !115
  %20 = getelementptr inbounds nuw %struct.hm_header_st, ptr %19, i32 0, i32 0
  store i8 %18, ptr %20, align 4, !tbaa !117
  %21 = load i64, ptr %9, align 8, !tbaa !53
  %22 = trunc i64 %21 to i32
  %23 = load ptr, ptr %13, align 8, !tbaa !115
  %24 = getelementptr inbounds nuw %struct.hm_header_st, ptr %23, i32 0, i32 1
  store i32 %22, ptr %24, align 4, !tbaa !99
  %25 = load i16, ptr %10, align 2, !tbaa !110
  %26 = load ptr, ptr %13, align 8, !tbaa !115
  %27 = getelementptr inbounds nuw %struct.hm_header_st, ptr %26, i32 0, i32 2
  store i16 %25, ptr %27, align 4, !tbaa !101
  %28 = load i64, ptr %11, align 8, !tbaa !53
  %29 = trunc i64 %28 to i32
  %30 = load ptr, ptr %13, align 8, !tbaa !115
  %31 = getelementptr inbounds nuw %struct.hm_header_st, ptr %30, i32 0, i32 3
  store i32 %29, ptr %31, align 4, !tbaa !97
  %32 = load i64, ptr %12, align 8, !tbaa !53
  %33 = trunc i64 %32 to i32
  %34 = load ptr, ptr %13, align 8, !tbaa !115
  %35 = getelementptr inbounds nuw %struct.hm_header_st, ptr %34, i32 0, i32 4
  store i32 %33, ptr %35, align 4, !tbaa !98
  call void @llvm.lifetime.end.p0(i64 8, ptr %13) #8
  ret void
}