; Function Attrs: mustprogress nofree norecurse nosync nounwind willreturn memory(write, argmem: readwrite, inaccessiblemem: none) uwtable
define hidden void @dtls1_set_message_header(ptr noundef readonly captures(none) %0, i8 noundef zeroext %1, i64 noundef %2, i16 noundef zeroext %3, i64 noundef %4, i64 noundef %5) local_unnamed_addr #8 {
  %7 = getelementptr inbounds nuw i8, ptr %0, i64 88
  %8 = load ptr, ptr %7, align 8, !tbaa !16
  %9 = getelementptr inbounds nuw i8, ptr %8, i64 332
  store i8 %1, ptr %9, align 4, !tbaa !99
  %10 = trunc i64 %2 to i32
  %11 = getelementptr inbounds nuw i8, ptr %8, i64 336
  store i32 %10, ptr %11, align 4, !tbaa !100
  %12 = getelementptr inbounds nuw i8, ptr %8, i64 340
  store i16 %3, ptr %12, align 4, !tbaa !101
  %13 = trunc i64 %4 to i32
  %14 = getelementptr inbounds nuw i8, ptr %8, i64 344
  store i32 %13, ptr %14, align 4, !tbaa !102
  %15 = trunc i64 %5 to i32
  %16 = getelementptr inbounds nuw i8, ptr %8, i64 348
  store i32 %15, ptr %16, align 4, !tbaa !103
  ret void
}